; ModuleID = '2/520.c'
source_filename = "2/520.c"
target datalayout = "e-m:e-p270:32:32-p271:32:32-p272:64:64-i64:64-f80:128-n8:16:32:64-S128"
target triple = "x86_64-pc-linux-gnu"

%struct.author = type { i8, i32, [1000 x i32] }
%struct.book = type { i32, [27 x i8] }

@aur = common dso_local global [27 x %struct.author] zeroinitializer, align 16
@.str = private unnamed_addr constant [3 x i8] c"%d\00", align 1
@.str.1 = private unnamed_addr constant [6 x i8] c"%d %s\00", align 1
@bk = common dso_local global [1000 x %struct.book] zeroinitializer, align 16
@.str.2 = private unnamed_addr constant [7 x i8] c"%c\0A%d\0A\00", align 1
@.str.3 = private unnamed_addr constant [4 x i8] c"%d\0A\00", align 1

; Function Attrs: noinline nounwind uwtable
define dso_local i32 @main() #0 {
  %1 = alloca i32, align 4
  %2 = alloca i32, align 4
  %3 = alloca i32, align 4
  %4 = alloca i32, align 4
  %5 = alloca %struct.author, align 4
  store i32 0, i32* %1, align 4
  %6 = getelementptr inbounds %struct.author, %struct.author* %5, i32 0, i32 1
  store i32 0, i32* %6, align 4
  store i32 0, i32* %4, align 4
  br label %7

7:                                                ; preds = %22, %0
  %8 = load i32, i32* %4, align 4
  %9 = icmp slt i32 %8, 26
  br i1 %9, label %10, label %25

10:                                               ; preds = %7
  %11 = load i32, i32* %4, align 4
  %12 = add nsw i32 65, %11
  %13 = trunc i32 %12 to i8
  %14 = load i32, i32* %4, align 4
  %15 = sext i32 %14 to i64
  %16 = getelementptr inbounds [27 x %struct.author], [27 x %struct.author]* @aur, i64 0, i64 %15
  %17 = getelementptr inbounds %struct.author, %struct.author* %16, i32 0, i32 0
  store i8 %13, i8* %17, align 8
  %18 = load i32, i32* %4, align 4
  %19 = sext i32 %18 to i64
  %20 = getelementptr inbounds [27 x %struct.author], [27 x %struct.author]* @aur, i64 0, i64 %19
  %21 = getelementptr inbounds %struct.author, %struct.author* %20, i32 0, i32 1
  store i32 0, i32* %21, align 4
  br label %22

22:                                               ; preds = %10
  %23 = load i32, i32* %4, align 4
  %24 = add nsw i32 %23, 1
  store i32 %24, i32* %4, align 4
  br label %7

25:                                               ; preds = %7
  %26 = call i32 (i8*, ...) @__isoc99_scanf(i8* getelementptr inbounds ([3 x i8], [3 x i8]* @.str, i64 0, i64 0), i32* %2)
  store i32 0, i32* %3, align 4
  br label %27

27:                                               ; preds = %42, %25
  %28 = load i32, i32* %3, align 4
  %29 = load i32, i32* %2, align 4
  %30 = icmp slt i32 %28, %29
  br i1 %30, label %31, label %45

31:                                               ; preds = %27
  %32 = load i32, i32* %3, align 4
  %33 = sext i32 %32 to i64
  %34 = getelementptr inbounds [1000 x %struct.book], [1000 x %struct.book]* @bk, i64 0, i64 %33
  %35 = getelementptr inbounds %struct.book, %struct.book* %34, i32 0, i32 0
  %36 = load i32, i32* %3, align 4
  %37 = sext i32 %36 to i64
  %38 = getelementptr inbounds [1000 x %struct.book], [1000 x %struct.book]* @bk, i64 0, i64 %37
  %39 = getelementptr inbounds %struct.book, %struct.book* %38, i32 0, i32 1
  %40 = getelementptr inbounds [27 x i8], [27 x i8]* %39, i64 0, i64 0
  %41 = call i32 (i8*, ...) @__isoc99_scanf(i8* getelementptr inbounds ([6 x i8], [6 x i8]* @.str.1, i64 0, i64 0), i32* %35, i8* %40)
  br label %42

42:                                               ; preds = %31
  %43 = load i32, i32* %3, align 4
  %44 = add nsw i32 %43, 1
  store i32 %44, i32* %3, align 4
  br label %27

45:                                               ; preds = %27
  store i32 0, i32* %3, align 4
  br label %46

46:                                               ; preds = %116, %45
  %47 = load i32, i32* %3, align 4
  %48 = load i32, i32* %2, align 4
  %49 = icmp slt i32 %47, %48
  br i1 %49, label %50, label %119

50:                                               ; preds = %46
  store i32 0, i32* %4, align 4
  br label %51

51:                                               ; preds = %112, %50
  %52 = load i32, i32* %3, align 4
  %53 = sext i32 %52 to i64
  %54 = getelementptr inbounds [1000 x %struct.book], [1000 x %struct.book]* @bk, i64 0, i64 %53
  %55 = getelementptr inbounds %struct.book, %struct.book* %54, i32 0, i32 1
  %56 = load i32, i32* %4, align 4
  %57 = sext i32 %56 to i64
  %58 = getelementptr inbounds [27 x i8], [27 x i8]* %55, i64 0, i64 %57
  %59 = load i8, i8* %58, align 1
  %60 = sext i8 %59 to i32
  %61 = icmp ne i32 %60, 0
  br i1 %61, label %62, label %115

62:                                               ; preds = %51
  %63 = load i32, i32* %3, align 4
  %64 = sext i32 %63 to i64
  %65 = getelementptr inbounds [1000 x %struct.book], [1000 x %struct.book]* @bk, i64 0, i64 %64
  %66 = getelementptr inbounds %struct.book, %struct.book* %65, i32 0, i32 0
  %67 = load i32, i32* %66, align 16
  %68 = load i32, i32* %3, align 4
  %69 = sext i32 %68 to i64
  %70 = getelementptr inbounds [1000 x %struct.book], [1000 x %struct.book]* @bk, i64 0, i64 %69
  %71 = getelementptr inbounds %struct.book, %struct.book* %70, i32 0, i32 1
  %72 = load i32, i32* %4, align 4
  %73 = sext i32 %72 to i64
  %74 = getelementptr inbounds [27 x i8], [27 x i8]* %71, i64 0, i64 %73
  %75 = load i8, i8* %74, align 1
  %76 = sext i8 %75 to i32
  %77 = sub nsw i32 %76, 65
  %78 = sext i32 %77 to i64
  %79 = getelementptr inbounds [27 x %struct.author], [27 x %struct.author]* @aur, i64 0, i64 %78
  %80 = getelementptr inbounds %struct.author, %struct.author* %79, i32 0, i32 2
  %81 = load i32, i32* %3, align 4
  %82 = sext i32 %81 to i64
  %83 = getelementptr inbounds [1000 x %struct.book], [1000 x %struct.book]* @bk, i64 0, i64 %82
  %84 = getelementptr inbounds %struct.book, %struct.book* %83, i32 0, i32 1
  %85 = load i32, i32* %4, align 4
  %86 = sext i32 %85 to i64
  %87 = getelementptr inbounds [27 x i8], [27 x i8]* %84, i64 0, i64 %86
  %88 = load i8, i8* %87, align 1
  %89 = sext i8 %88 to i32
  %90 = sub nsw i32 %89, 65
  %91 = sext i32 %90 to i64
  %92 = getelementptr inbounds [27 x %struct.author], [27 x %struct.author]* @aur, i64 0, i64 %91
  %93 = getelementptr inbounds %struct.author, %struct.author* %92, i32 0, i32 1
  %94 = load i32, i32* %93, align 4
  %95 = sext i32 %94 to i64
  %96 = getelementptr inbounds [1000 x i32], [1000 x i32]* %80, i64 0, i64 %95
  store i32 %67, i32* %96, align 4
  %97 = load i32, i32* %3, align 4
  %98 = sext i32 %97 to i64
  %99 = getelementptr inbounds [1000 x %struct.book], [1000 x %struct.book]* @bk, i64 0, i64 %98
  %100 = getelementptr inbounds %struct.book, %struct.book* %99, i32 0, i32 1
  %101 = load i32, i32* %4, align 4
  %102 = sext i32 %101 to i64
  %103 = getelementptr inbounds [27 x i8], [27 x i8]* %100, i64 0, i64 %102
  %104 = load i8, i8* %103, align 1
  %105 = sext i8 %104 to i32
  %106 = sub nsw i32 %105, 65
  %107 = sext i32 %106 to i64
  %108 = getelementptr inbounds [27 x %struct.author], [27 x %struct.author]* @aur, i64 0, i64 %107
  %109 = getelementptr inbounds %struct.author, %struct.author* %108, i32 0, i32 1
  %110 = load i32, i32* %109, align 4
  %111 = add nsw i32 %110, 1
  store i32 %111, i32* %109, align 4
  br label %112

112:                                              ; preds = %62
  %113 = load i32, i32* %4, align 4
  %114 = add nsw i32 %113, 1
  store i32 %114, i32* %4, align 4
  br label %51

115:                                              ; preds = %51
  br label %116

116:                                              ; preds = %115
  %117 = load i32, i32* %3, align 4
  %118 = add nsw i32 %117, 1
  store i32 %118, i32* %3, align 4
  br label %46

119:                                              ; preds = %46
  store i32 0, i32* %3, align 4
  br label %120

120:                                              ; preds = %139, %119
  %121 = load i32, i32* %3, align 4
  %122 = icmp slt i32 %121, 26
  br i1 %122, label %123, label %142

123:                                              ; preds = %120
  %124 = load i32, i32* %3, align 4
  %125 = sext i32 %124 to i64
  %126 = getelementptr inbounds [27 x %struct.author], [27 x %struct.author]* @aur, i64 0, i64 %125
  %127 = getelementptr inbounds %struct.author, %struct.author* %126, i32 0, i32 1
  %128 = load i32, i32* %127, align 4
  %129 = getelementptr inbounds %struct.author, %struct.author* %5, i32 0, i32 1
  %130 = load i32, i32* %129, align 4
  %131 = icmp sgt i32 %128, %130
  br i1 %131, label %132, label %138

132:                                              ; preds = %123
  %133 = load i32, i32* %3, align 4
  %134 = sext i32 %133 to i64
  %135 = getelementptr inbounds [27 x %struct.author], [27 x %struct.author]* @aur, i64 0, i64 %134
  %136 = bitcast %struct.author* %5 to i8*
  %137 = bitcast %struct.author* %135 to i8*
  call void @llvm.memcpy.p0i8.p0i8.i64(i8* align 4 %136, i8* align 8 %137, i64 4008, i1 false)
  br label %138

138:                                              ; preds = %132, %123
  br label %139

139:                                              ; preds = %138
  %140 = load i32, i32* %3, align 4
  %141 = add nsw i32 %140, 1
  store i32 %141, i32* %3, align 4
  br label %120

142:                                              ; preds = %120
  %143 = getelementptr inbounds %struct.author, %struct.author* %5, i32 0, i32 0
  %144 = load i8, i8* %143, align 4
  %145 = sext i8 %144 to i32
  %146 = getelementptr inbounds %struct.author, %struct.author* %5, i32 0, i32 1
  %147 = load i32, i32* %146, align 4
  %148 = call i32 (i8*, ...) @printf(i8* getelementptr inbounds ([7 x i8], [7 x i8]* @.str.2, i64 0, i64 0), i32 %145, i32 %147)
  store i32 0, i32* %3, align 4
  br label %149

149:                                              ; preds = %161, %142
  %150 = load i32, i32* %3, align 4
  %151 = getelementptr inbounds %struct.author, %struct.author* %5, i32 0, i32 1
  %152 = load i32, i32* %151, align 4
  %153 = icmp slt i32 %150, %152
  br i1 %153, label %154, label %164

154:                                              ; preds = %149
  %155 = getelementptr inbounds %struct.author, %struct.author* %5, i32 0, i32 2
  %156 = load i32, i32* %3, align 4
  %157 = sext i32 %156 to i64
  %158 = getelementptr inbounds [1000 x i32], [1000 x i32]* %155, i64 0, i64 %157
  %159 = load i32, i32* %158, align 4
  %160 = call i32 (i8*, ...) @printf(i8* getelementptr inbounds ([4 x i8], [4 x i8]* @.str.3, i64 0, i64 0), i32 %159)
  br label %161

161:                                              ; preds = %154
  %162 = load i32, i32* %3, align 4
  %163 = add nsw i32 %162, 1
  store i32 %163, i32* %3, align 4
  br label %149

164:                                              ; preds = %149
  ret i32 0
}

declare dso_local i32 @__isoc99_scanf(i8*, ...) #1

; Function Attrs: argmemonly nounwind willreturn
declare void @llvm.memcpy.p0i8.p0i8.i64(i8* noalias nocapture writeonly, i8* noalias nocapture readonly, i64, i1 immarg) #2

declare dso_local i32 @printf(i8*, ...) #1


!llvm.module.flags = !{!0}
!llvm.ident = !{!1}

!0 = !{i32 1, !"wchar_size", i32 4}
!1 = !{!"clang version 10.0.0-4ubuntu1 "}
